target datalayout = "e-m:e-p270:32:32-p271:32:32-p272:64:64-i64:64-i128:128-f80:128-n8:16:32:64-S128"
target triple = "x86_64-pc-linux-gnu"

%"class.std::__cxx11::basic_string" = type { %"struct.std::__cxx11::basic_string<char>::_Alloc_hider", i64, %union.anon }
%"struct.std::__cxx11::basic_string<char>::_Alloc_hider" = type { ptr }
%union.anon = type { i64, [8 x i8] }
%"class.pybind11::detail::type_caster_generic" = type { ptr, ptr, ptr }
%struct.Issue1561Inner = type { %"class.std::__cxx11::basic_string" }
%"class.std::vector.1974" = type { %"struct.std::_Vector_base.1975" }
%"struct.std::_Vector_base.1975" = type { %"struct.std::_Vector_base<Issue1561Inner, std::allocator<Issue1561Inner>>::_Vector_impl" }
%"struct.std::_Vector_base<Issue1561Inner, std::allocator<Issue1561Inner>>::_Vector_impl" = type { %"struct.std::_Vector_base<Issue1561Inner, std::allocator<Issue1561Inner>>::_Vector_impl_data" }
%"struct.std::_Vector_base<Issue1561Inner, std::allocator<Issue1561Inner>>::_Vector_impl_data" = type { ptr, ptr, ptr }
%"struct.std::_Head_base.1993" = type { %"class.pybind11::detail::type_caster.1994" }
%"class.pybind11::detail::type_caster.1994" = type { %"class.pybind11::detail::type_caster_base.1995" }
%"class.pybind11::detail::type_caster_base.1995" = type { %"class.pybind11::detail::type_caster_generic" }
%"class.pybind11::detail::argument_loader.2005" = type { %"class.std::tuple.2006" }
%"class.std::tuple.2006" = type { %"struct.std::_Tuple_impl.2007" }
%"struct.std::_Tuple_impl.2007" = type { %"struct.std::_Tuple_impl.2008", %"struct.std::_Head_base.1993" }
%"struct.std::_Tuple_impl.2008" = type { %"struct.std::_Head_base.2009" }
%"struct.std::_Head_base.2009" = type { %"struct.pybind11::detail::type_caster.2010" }
%"struct.pybind11::detail::type_caster.2010" = type { %"struct.pybind11::detail::list_caster.2011" }
%"struct.pybind11::detail::list_caster.2011" = type { %"class.std::vector.1974" }

; Function Attrs: mustprogress nounwind uwtable
define internal void @_ZZ18test_submodule_stlRN8pybind117module_EEN14Issue1561InnerD2Ev(ptr noundef nonnull align 8 dereferenceable(32) %0) unnamed_addr #0 align 2 {
  %2 = alloca ptr, align 8
  store ptr %0, ptr %2, align 8
  %3 = load ptr, ptr %2, align 8
  %4 = getelementptr inbounds %struct.Issue1561Inner, ptr %3, i32 0, i32 0
  call void @_ZNSt7__cxx1112basic_stringIcSt11char_traitsIcESaIcEED1Ev(ptr noundef nonnull align 8 dereferenceable(32) %4) #6
  ret void
}

; Function Attrs: mustprogress nounwind uwtable
define internal void @_ZNSt15__new_allocatorIZ18test_submodule_stlRN8pybind117module_EE14Issue1561InnerED2Ev(ptr noundef nonnull align 1 dereferenceable(1) %0) unnamed_addr #0 align 2 {
  %2 = alloca ptr, align 8
  store ptr %0, ptr %2, align 8
  ret void
}

; Function Attrs: mustprogress nounwind uwtable
define internal void @_ZNSt15__new_allocatorIZ18test_submodule_stlRN8pybind117module_EE14Issue1561InnerE10deallocateEPS3_m(ptr noundef nonnull align 1 dereferenceable(1) %0, ptr noundef %1, i64 noundef %2) #0 align 2 {
  %4 = alloca ptr, align 8
  %5 = alloca ptr, align 8
  %6 = alloca i64, align 8
  store ptr %0, ptr %4, align 8
  store ptr %1, ptr %5, align 8
  store i64 %2, ptr %6, align 8
  %7 = load ptr, ptr %5, align 8
  call void @_ZdlPv(ptr noundef %7) #23
  ret void
}

; Function Attrs: mustprogress nounwind uwtable
define internal void @_ZSt8_DestroyIZ18test_submodule_stlRN8pybind117module_EE14Issue1561InnerEvPT_(ptr noundef %0) #0 {
  %2 = alloca ptr, align 8
  store ptr %0, ptr %2, align 8
  %3 = load ptr, ptr %2, align 8
  call void @_ZZ18test_submodule_stlRN8pybind117module_EEN14Issue1561InnerD2Ev(ptr noundef nonnull align 8 dereferenceable(32) %3) #6
  ret void
}

; Function Attrs: mustprogress nounwind uwtable
define internal void @_ZNSaIZ18test_submodule_stlRN8pybind117module_EE14Issue1561InnerED2Ev(ptr noundef nonnull align 1 dereferenceable(1) %0) unnamed_addr #0 align 2 {
  %2 = alloca ptr, align 8
  store ptr %0, ptr %2, align 8
  %3 = load ptr, ptr %2, align 8
  call void @_ZNSt15__new_allocatorIZ18test_submodule_stlRN8pybind117module_EE14Issue1561InnerED2Ev(ptr noundef nonnull align 1 dereferenceable(1) %3) #6
  ret void
}

; Function Attrs: mustprogress uwtable
define internal void @_ZNSt16allocator_traitsISaIZ18test_submodule_stlRN8pybind117module_EE14Issue1561InnerEE10deallocateERS4_PS3_m(ptr noundef nonnull align 1 dereferenceable(1) %0, ptr noundef %1, i64 noundef %2) #1 align 2 {
  %4 = alloca ptr, align 8
  %5 = alloca ptr, align 8
  %6 = alloca i64, align 8
  store ptr %0, ptr %4, align 8
  store ptr %1, ptr %5, align 8
  store i64 %2, ptr %6, align 8
  %7 = load ptr, ptr %4, align 8
  %8 = load ptr, ptr %5, align 8
  %9 = load i64, ptr %6, align 8
  call void @_ZNSt15__new_allocatorIZ18test_submodule_stlRN8pybind117module_EE14Issue1561InnerE10deallocateEPS3_m(ptr noundef nonnull align 1 dereferenceable(1) %7, ptr noundef %8, i64 noundef %9)
  ret void
}

; Function Attrs: mustprogress uwtable
define internal void @_ZNSt12_Destroy_auxILb0EE9__destroyIPZ18test_submodule_stlRN8pybind117module_EE14Issue1561InnerEEvT_S7_(ptr noundef %0, ptr noundef %1) #1 align 2 {
  %3 = alloca ptr, align 8
  %4 = alloca ptr, align 8
  store ptr %0, ptr %3, align 8
  store ptr %1, ptr %4, align 8
  br label %5

5:                                                ; preds = %11, %2
  %6 = load ptr, ptr %3, align 8
  %7 = load ptr, ptr %4, align 8
  %8 = icmp ne ptr %6, %7
  br i1 %8, label %9, label %14

9:                                                ; preds = %5
  %10 = load ptr, ptr %3, align 8
  call void @_ZSt8_DestroyIZ18test_submodule_stlRN8pybind117module_EE14Issue1561InnerEvPT_(ptr noundef %10)
  br label %11

11:                                               ; preds = %9
  %12 = load ptr, ptr %3, align 8
  %13 = getelementptr inbounds %struct.Issue1561Inner, ptr %12, i32 1
  store ptr %13, ptr %3, align 8
  br label %5, !llvm.loop !146

14:                                               ; preds = %5
  ret void
}

; Function Attrs: mustprogress nounwind uwtable
define internal void @_ZNSt12_Vector_baseIZ18test_submodule_stlRN8pybind117module_EE14Issue1561InnerSaIS3_EE12_Vector_implD2Ev(ptr noundef nonnull align 8 dereferenceable(24) %0) unnamed_addr #0 align 2 {
  %2 = alloca ptr, align 8
  store ptr %0, ptr %2, align 8
  %3 = load ptr, ptr %2, align 8
  call void @_ZNSaIZ18test_submodule_stlRN8pybind117module_EE14Issue1561InnerED2Ev(ptr noundef nonnull align 1 dereferenceable(1) %3) #6
  ret void
}

; Function Attrs: mustprogress uwtable
define internal void @_ZNSt12_Vector_baseIZ18test_submodule_stlRN8pybind117module_EE14Issue1561InnerSaIS3_EE13_M_deallocateEPS3_m(ptr noundef nonnull align 8 dereferenceable(24) %0, ptr noundef %1, i64 noundef %2) #1 align 2 {
  %4 = alloca ptr, align 8
  %5 = alloca ptr, align 8
  %6 = alloca i64, align 8
  store ptr %0, ptr %4, align 8
  store ptr %1, ptr %5, align 8
  store i64 %2, ptr %6, align 8
  %7 = load ptr, ptr %4, align 8
  %8 = load ptr, ptr %5, align 8
  %9 = icmp ne ptr %8, null
  br i1 %9, label %10, label %14

10:                                               ; preds = %3
  %11 = getelementptr inbounds %"struct.std::_Vector_base.1975", ptr %7, i32 0, i32 0
  %12 = load ptr, ptr %5, align 8
  %13 = load i64, ptr %6, align 8
  call void @_ZNSt16allocator_traitsISaIZ18test_submodule_stlRN8pybind117module_EE14Issue1561InnerEE10deallocateERS4_PS3_m(ptr noundef nonnull align 1 dereferenceable(1) %11, ptr noundef %12, i64 noundef %13)
  br label %14

14:                                               ; preds = %10, %3
  ret void
}

; Function Attrs: mustprogress uwtable
define internal void @_ZSt8_DestroyIPZ18test_submodule_stlRN8pybind117module_EE14Issue1561InnerEvT_S5_(ptr noundef %0, ptr noundef %1) #1 {
  %3 = alloca ptr, align 8
  %4 = alloca ptr, align 8
  store ptr %0, ptr %3, align 8
  store ptr %1, ptr %4, align 8
  %5 = load ptr, ptr %3, align 8
  %6 = load ptr, ptr %4, align 8
  call void @_ZNSt12_Destroy_auxILb0EE9__destroyIPZ18test_submodule_stlRN8pybind117module_EE14Issue1561InnerEEvT_S7_(ptr noundef %5, ptr noundef %6)
  ret void
}

; Function Attrs: noreturn nounwind uwtable
define linkonce_odr hidden void @__clang_call_terminate(ptr noundef %0) #2 comdat {
  %2 = call ptr @__cxa_begin_catch(ptr %0) #6
  call void @_ZSt9terminatev() #21
  unreachable
}

; Function Attrs: mustprogress nounwind uwtable
define internal void @_ZNSt12_Vector_baseIZ18test_submodule_stlRN8pybind117module_EE14Issue1561InnerSaIS3_EED2Ev(ptr noundef nonnull align 8 dereferenceable(24) %0) unnamed_addr #0 align 2 personality ptr @__gxx_personality_v0 {
  %2 = alloca ptr, align 8
  store ptr %0, ptr %2, align 8
  %3 = load ptr, ptr %2, align 8
  %4 = getelementptr inbounds %"struct.std::_Vector_base.1975", ptr %3, i32 0, i32 0
  %5 = getelementptr inbounds %"struct.std::_Vector_base<Issue1561Inner, std::allocator<Issue1561Inner>>::_Vector_impl_data", ptr %4, i32 0, i32 0
  %6 = load ptr, ptr %5, align 8
  %7 = getelementptr inbounds %"struct.std::_Vector_base.1975", ptr %3, i32 0, i32 0
  %8 = getelementptr inbounds %"struct.std::_Vector_base<Issue1561Inner, std::allocator<Issue1561Inner>>::_Vector_impl_data", ptr %7, i32 0, i32 2
  %9 = load ptr, ptr %8, align 8
  %10 = getelementptr inbounds %"struct.std::_Vector_base.1975", ptr %3, i32 0, i32 0
  %11 = getelementptr inbounds %"struct.std::_Vector_base<Issue1561Inner, std::allocator<Issue1561Inner>>::_Vector_impl_data", ptr %10, i32 0, i32 0
  %12 = load ptr, ptr %11, align 8
  %13 = ptrtoint ptr %9 to i64
  %14 = ptrtoint ptr %12 to i64
  %15 = sub i64 %13, %14
  %16 = sdiv exact i64 %15, 32
  invoke void @_ZNSt12_Vector_baseIZ18test_submodule_stlRN8pybind117module_EE14Issue1561InnerSaIS3_EE13_M_deallocateEPS3_m(ptr noundef nonnull align 8 dereferenceable(24) %3, ptr noundef %6, i64 noundef %16)
          to label %17 unwind label %19

17:                                               ; preds = %1
  %18 = getelementptr inbounds %"struct.std::_Vector_base.1975", ptr %3, i32 0, i32 0
  call void @_ZNSt12_Vector_baseIZ18test_submodule_stlRN8pybind117module_EE14Issue1561InnerSaIS3_EE12_Vector_implD2Ev(ptr noundef nonnull align 8 dereferenceable(24) %18) #6
  ret void

19:                                               ; preds = %1
  %20 = landingpad { ptr, i32 }
          catch ptr null
  %21 = extractvalue { ptr, i32 } %20, 0
  call void @__clang_call_terminate(ptr %21) #21
  unreachable
}

; Function Attrs: mustprogress uwtable
define internal void @_ZSt8_DestroyIPZ18test_submodule_stlRN8pybind117module_EE14Issue1561InnerS3_EvT_S5_RSaIT0_E(ptr noundef %0, ptr noundef %1, ptr noundef nonnull align 1 dereferenceable(1) %2) #1 {
  %4 = alloca ptr, align 8
  %5 = alloca ptr, align 8
  %6 = alloca ptr, align 8
  store ptr %0, ptr %4, align 8
  store ptr %1, ptr %5, align 8
  store ptr %2, ptr %6, align 8
  %7 = load ptr, ptr %4, align 8
  %8 = load ptr, ptr %5, align 8
  call void @_ZSt8_DestroyIPZ18test_submodule_stlRN8pybind117module_EE14Issue1561InnerEvT_S5_(ptr noundef %7, ptr noundef %8)
  ret void
}

; Function Attrs: mustprogress nounwind uwtable
define internal noundef nonnull align 1 dereferenceable(1) ptr @_ZNSt12_Vector_baseIZ18test_submodule_stlRN8pybind117module_EE14Issue1561InnerSaIS3_EE19_M_get_Tp_allocatorEv(ptr noundef nonnull align 8 dereferenceable(24) %0) #0 align 2 {
  %2 = alloca ptr, align 8
  store ptr %0, ptr %2, align 8
  %3 = load ptr, ptr %2, align 8
  %4 = getelementptr inbounds %"struct.std::_Vector_base.1975", ptr %3, i32 0, i32 0
  ret ptr %4
}

; Function Attrs: mustprogress nounwind uwtable
define internal void @_ZNSt6vectorIZ18test_submodule_stlRN8pybind117module_EE14Issue1561InnerSaIS3_EED2Ev(ptr noundef nonnull align 8 dereferenceable(24) %0) unnamed_addr #0 align 2 personality ptr @__gxx_personality_v0 {
  %2 = alloca ptr, align 8
  store ptr %0, ptr %2, align 8
  %3 = load ptr, ptr %2, align 8
  %4 = getelementptr inbounds %"struct.std::_Vector_base.1975", ptr %3, i32 0, i32 0
  %5 = getelementptr inbounds %"struct.std::_Vector_base<Issue1561Inner, std::allocator<Issue1561Inner>>::_Vector_impl_data", ptr %4, i32 0, i32 0
  %6 = load ptr, ptr %5, align 8
  %7 = getelementptr inbounds %"struct.std::_Vector_base.1975", ptr %3, i32 0, i32 0
  %8 = getelementptr inbounds %"struct.std::_Vector_base<Issue1561Inner, std::allocator<Issue1561Inner>>::_Vector_impl_data", ptr %7, i32 0, i32 1
  %9 = load ptr, ptr %8, align 8
  %10 = call noundef nonnull align 1 dereferenceable(1) ptr @_ZNSt12_Vector_baseIZ18test_submodule_stlRN8pybind117module_EE14Issue1561InnerSaIS3_EE19_M_get_Tp_allocatorEv(ptr noundef nonnull align 8 dereferenceable(24) %3) #6
  invoke void @_ZSt8_DestroyIPZ18test_submodule_stlRN8pybind117module_EE14Issue1561InnerS3_EvT_S5_RSaIT0_E(ptr noundef %6, ptr noundef %9, ptr noundef nonnull align 1 dereferenceable(1) %10)
          to label %11 unwind label %12

11:                                               ; preds = %1
  call void @_ZNSt12_Vector_baseIZ18test_submodule_stlRN8pybind117module_EE14Issue1561InnerSaIS3_EED2Ev(ptr noundef nonnull align 8 dereferenceable(24) %3) #6
  ret void

12:                                               ; preds = %1
  %13 = landingpad { ptr, i32 }
          catch ptr null
  %14 = extractvalue { ptr, i32 } %13, 0
  call void @__clang_call_terminate(ptr %14) #21
  unreachable
}

; Function Attrs: mustprogress nounwind uwtable
define internal void @_ZN8pybind116detail11list_casterISt6vectorIZ18test_submodule_stlRNS_7module_EE14Issue1561InnerSaIS5_EES5_ED2Ev(ptr noundef nonnull align 8 dereferenceable(24) %0) unnamed_addr #0 align 2 {
  %2 = alloca ptr, align 8
  store ptr %0, ptr %2, align 8
  %3 = load ptr, ptr %2, align 8
  %4 = getelementptr inbounds %"struct.pybind11::detail::list_caster.2011", ptr %3, i32 0, i32 0
  call void @_ZNSt6vectorIZ18test_submodule_stlRN8pybind117module_EE14Issue1561InnerSaIS3_EED2Ev(ptr noundef nonnull align 8 dereferenceable(24) %4) #6
  ret void
}

; Function Attrs: mustprogress nounwind uwtable
define internal void @_ZN8pybind116detail11type_casterISt6vectorIZ18test_submodule_stlRNS_7module_EE14Issue1561InnerSaIS5_EEvED2Ev(ptr noundef nonnull align 8 dereferenceable(24) %0) unnamed_addr #0 align 2 {
  %2 = alloca ptr, align 8
  store ptr %0, ptr %2, align 8
  %3 = load ptr, ptr %2, align 8
  call void @_ZN8pybind116detail11list_casterISt6vectorIZ18test_submodule_stlRNS_7module_EE14Issue1561InnerSaIS5_EES5_ED2Ev(ptr noundef nonnull align 8 dereferenceable(24) %3) #6
  ret void
}

; Function Attrs: mustprogress nounwind uwtable
define internal void @_ZNSt10_Head_baseILm1EN8pybind116detail11type_casterISt6vectorIZ18test_submodule_stlRNS0_7module_EE14Issue1561InnerSaIS6_EEvEELb0EED2Ev(ptr noundef nonnull align 8 dereferenceable(24) %0) unnamed_addr #0 align 2 {
  %2 = alloca ptr, align 8
  store ptr %0, ptr %2, align 8
  %3 = load ptr, ptr %2, align 8
  %4 = getelementptr inbounds %"struct.std::_Head_base.2009", ptr %3, i32 0, i32 0
  call void @_ZN8pybind116detail11type_casterISt6vectorIZ18test_submodule_stlRNS_7module_EE14Issue1561InnerSaIS5_EEvED2Ev(ptr noundef nonnull align 8 dereferenceable(24) %4) #6
  ret void
}

; Function Attrs: mustprogress nounwind uwtable
define internal void @_ZNSt11_Tuple_implILm1EJN8pybind116detail11type_casterISt6vectorIZ18test_submodule_stlRNS0_7module_EE14Issue1561InnerSaIS6_EEvEEEED2Ev(ptr noundef nonnull align 8 dereferenceable(24) %0) unnamed_addr #0 align 2 {
  %2 = alloca ptr, align 8
  store ptr %0, ptr %2, align 8
  %3 = load ptr, ptr %2, align 8
  call void @_ZNSt10_Head_baseILm1EN8pybind116detail11type_casterISt6vectorIZ18test_submodule_stlRNS0_7module_EE14Issue1561InnerSaIS6_EEvEELb0EED2Ev(ptr noundef nonnull align 8 dereferenceable(24) %3) #6
  ret void
}

; Function Attrs: mustprogress nounwind uwtable
define internal void @_ZNSt11_Tuple_implILm0EJN8pybind116detail11type_casterIZ18test_submodule_stlRNS0_7module_EE14Issue1561OutervEENS2_ISt6vectorIZ18test_submodule_stlS4_E14Issue1561InnerSaIS8_EEvEEEED2Ev(ptr noundef nonnull align 8 dereferenceable(48) %0) unnamed_addr #0 align 2 {
  %2 = alloca ptr, align 8
  store ptr %0, ptr %2, align 8
  %3 = load ptr, ptr %2, align 8
  call void @_ZNSt11_Tuple_implILm1EJN8pybind116detail11type_casterISt6vectorIZ18test_submodule_stlRNS0_7module_EE14Issue1561InnerSaIS6_EEvEEEED2Ev(ptr noundef nonnull align 8 dereferenceable(24) %3) #6
  ret void
}

; Function Attrs: mustprogress nounwind uwtable
define internal void @_ZNSt5tupleIJN8pybind116detail11type_casterIZ18test_submodule_stlRNS0_7module_EE14Issue1561OutervEENS2_ISt6vectorIZ18test_submodule_stlS4_E14Issue1561InnerSaIS8_EEvEEEED2Ev(ptr noundef nonnull align 8 dereferenceable(48) %0) unnamed_addr #0 align 2 {
  %2 = alloca ptr, align 8
  store ptr %0, ptr %2, align 8
  %3 = load ptr, ptr %2, align 8
  call void @_ZNSt11_Tuple_implILm0EJN8pybind116detail11type_casterIZ18test_submodule_stlRNS0_7module_EE14Issue1561OutervEENS2_ISt6vectorIZ18test_submodule_stlS4_E14Issue1561InnerSaIS8_EEvEEEED2Ev(ptr noundef nonnull align 8 dereferenceable(48) %3) #6
  ret void
}

; Function Attrs: mustprogress nounwind uwtable
define internal void @_ZN8pybind116detail15argument_loaderIJRZ18test_submodule_stlRNS_7module_EE14Issue1561OuterRKSt6vectorIZ18test_submodule_stlS3_E14Issue1561InnerSaIS7_EEEED2Ev(ptr noundef nonnull align 8 dereferenceable(48) %0) unnamed_addr #0 align 2 {
  %2 = alloca ptr, align 8
  store ptr %0, ptr %2, align 8
  %3 = load ptr, ptr %2, align 8
  %4 = getelementptr inbounds %"class.pybind11::detail::argument_loader.2005", ptr %3, i32 0, i32 0
  call void @_ZNSt5tupleIJN8pybind116detail11type_casterIZ18test_submodule_stlRNS0_7module_EE14Issue1561OutervEENS2_ISt6vectorIZ18test_submodule_stlS4_E14Issue1561InnerSaIS8_EEvEEEED2Ev(ptr noundef nonnull align 8 dereferenceable(48) %4) #6
  ret void
}